; Function Attrs: nounwind uwtable
define noalias noundef ptr @Amap_LibCollectFanins(ptr noundef readonly captures(none) %0, ptr noundef readonly captures(none) %1) local_unnamed_addr #0 {
  %3 = tail call noalias dereferenceable_or_null(16) ptr @malloc(i64 noundef 16) #10
  %4 = getelementptr inbounds nuw i8, ptr %3, i64 4
  store i32 0, ptr %4, align 4, !tbaa !3
  store i32 16, ptr %3, align 8, !tbaa !10
  %5 = tail call noalias dereferenceable_or_null(64) ptr @malloc(i64 noundef 64) #10
  %6 = getelementptr inbounds nuw i8, ptr %3, i64 8
  store ptr %5, ptr %6, align 8, !tbaa !11
  tail call void @Amap_LibCollectFanins_rec(ptr noundef %0, ptr noundef %1, ptr noundef nonnull %3)
  ret ptr %3
}